target datalayout = "e-m:e-p270:32:32-p271:32:32-p272:64:64-i64:64-i128:128-f80:128-n8:16:32:64-S128"
target triple = "x86_64-pc-linux-gnu"

%struct.pmix_list_t = type { %struct.pmix_object_t, %struct.pmix_list_item_t, i64 }
%struct.pmix_object_t = type { %union.pthread_mutex_t, ptr, i32, %struct.pmix_tma }
%union.pthread_mutex_t = type { %struct.__pthread_mutex_s }
%struct.__pthread_mutex_s = type { i32, i32, i32, i32, i32, i16, i16, %struct.__pthread_internal_list }
%struct.__pthread_internal_list = type { ptr, ptr }
%struct.pmix_tma = type { ptr, ptr, ptr, ptr, ptr, ptr, ptr, ptr }
%struct.pmix_list_item_t = type { %struct.pmix_object_t, ptr, ptr, i32 }
%struct.pmix_value = type { i16, %union.anon }
%union.anon = type { %struct.pmix_envar_t }
%struct.pmix_envar_t = type { ptr, ptr, i8 }
%struct.pmix_data_array = type { i16, i64, ptr }
%struct.pmix_infolist_t = type { %struct.pmix_list_item_t, %struct.pmix_info }
%struct.pmix_info = type { [512 x i8], i32, %struct.pmix_value }

; Function Attrs: inlinehint nounwind uwtable
define internal i64 @pmix_list_get_size(ptr noundef %0) #8 {
  %2 = alloca ptr, align 8
  store ptr %0, ptr %2, align 8, !tbaa !114
  %3 = load ptr, ptr %2, align 8, !tbaa !114
  %4 = getelementptr inbounds nuw %struct.pmix_list_t, ptr %3, i32 0, i32 2
  %5 = load volatile i64, ptr %4, align 8, !tbaa !135
  ret i64 %5
}

; Function Attrs: nounwind uwtable
define i32 @PMIx_Info_list_convert(ptr noundef %0, ptr noundef %1) #0 {
  %3 = alloca i32, align 4
  %4 = alloca ptr, align 8
  %5 = alloca ptr, align 8
  %6 = alloca ptr, align 8
  %7 = alloca i64, align 8
  %8 = alloca ptr, align 8
  %9 = alloca ptr, align 8
  %10 = alloca i32, align 4
  store ptr %0, ptr %4, align 8, !tbaa !8
  store ptr %1, ptr %5, align 8, !tbaa !29
  call void @llvm.lifetime.start.p0(i64 8, ptr %6) #15
  %11 = load ptr, ptr %4, align 8, !tbaa !8
  store ptr %11, ptr %6, align 8, !tbaa !114
  call void @llvm.lifetime.start.p0(i64 8, ptr %7) #15
  call void @llvm.lifetime.start.p0(i64 8, ptr %8) #15
  call void @llvm.lifetime.start.p0(i64 8, ptr %9) #15
  %12 = load ptr, ptr %5, align 8, !tbaa !29
  %13 = icmp eq ptr null, %12
  br i1 %13, label %17, label %14

14:                                               ; preds = %2
  %15 = load ptr, ptr %4, align 8, !tbaa !8
  %16 = icmp eq ptr null, %15
  br i1 %16, label %17, label %18

17:                                               ; preds = %14, %2
  store i32 -27, ptr %3, align 4
  store i32 1, ptr %10, align 4
  br label %67

18:                                               ; preds = %14
  %19 = load ptr, ptr %5, align 8, !tbaa !29
  call void @PMIx_Data_array_init(ptr noundef %19, i16 noundef zeroext 24)
  %20 = load ptr, ptr %6, align 8, !tbaa !114
  %21 = call i64 @pmix_list_get_size(ptr noundef %20)
  store i64 %21, ptr %7, align 8, !tbaa !58
  %22 = load i64, ptr %7, align 8, !tbaa !58
  %23 = icmp eq i64 0, %22
  br i1 %23, label %24, label %25

24:                                               ; preds = %18
  store i32 -60, ptr %3, align 4
  store i32 1, ptr %10, align 4
  br label %67

25:                                               ; preds = %18
  %26 = load i64, ptr %7, align 8, !tbaa !58
  %27 = call ptr @PMIx_Info_create(i64 noundef %26)
  %28 = load ptr, ptr %5, align 8, !tbaa !29
  %29 = getelementptr inbounds nuw %struct.pmix_data_array, ptr %28, i32 0, i32 2
  store ptr %27, ptr %29, align 8, !tbaa !70
  %30 = load ptr, ptr %5, align 8, !tbaa !29
  %31 = getelementptr inbounds nuw %struct.pmix_data_array, ptr %30, i32 0, i32 2
  %32 = load ptr, ptr %31, align 8, !tbaa !70
  %33 = icmp eq ptr null, %32
  br i1 %33, label %34, label %35

34:                                               ; preds = %25
  store i32 -32, ptr %3, align 4
  store i32 1, ptr %10, align 4
  br label %67

35:                                               ; preds = %25
  %36 = load ptr, ptr %5, align 8, !tbaa !29
  %37 = getelementptr inbounds nuw %struct.pmix_data_array, ptr %36, i32 0, i32 0
  store i16 24, ptr %37, align 8, !tbaa !68
  %38 = load i64, ptr %7, align 8, !tbaa !58
  %39 = load ptr, ptr %5, align 8, !tbaa !29
  %40 = getelementptr inbounds nuw %struct.pmix_data_array, ptr %39, i32 0, i32 1
  store i64 %38, ptr %40, align 8, !tbaa !72
  %41 = load ptr, ptr %5, align 8, !tbaa !29
  %42 = getelementptr inbounds nuw %struct.pmix_data_array, ptr %41, i32 0, i32 2
  %43 = load ptr, ptr %42, align 8, !tbaa !70
  store ptr %43, ptr %9, align 8, !tbaa !136
  store i64 0, ptr %7, align 8, !tbaa !58
  %44 = load ptr, ptr %6, align 8, !tbaa !114
  %45 = getelementptr inbounds nuw %struct.pmix_list_t, ptr %44, i32 0, i32 1
  %46 = getelementptr inbounds nuw %struct.pmix_list_item_t, ptr %45, i32 0, i32 1
  %47 = load ptr, ptr %46, align 8, !tbaa !138
  store ptr %47, ptr %8, align 8, !tbaa !8
  br label %48

48:                                               ; preds = %62, %35
  %49 = load ptr, ptr %8, align 8, !tbaa !8
  %50 = load ptr, ptr %6, align 8, !tbaa !114
  %51 = getelementptr inbounds nuw %struct.pmix_list_t, ptr %50, i32 0, i32 1
  %52 = icmp ne ptr %49, %51
  br i1 %52, label %53, label %66

53:                                               ; preds = %48
  %54 = load ptr, ptr %9, align 8, !tbaa !136
  %55 = load i64, ptr %7, align 8, !tbaa !58
  %56 = getelementptr inbounds nuw %struct.pmix_info, ptr %54, i64 %55
  %57 = load ptr, ptr %8, align 8, !tbaa !8
  %58 = getelementptr inbounds nuw %struct.pmix_infolist_t, ptr %57, i32 0, i32 1
  %59 = call i32 @PMIx_Info_xfer(ptr noundef %56, ptr noundef %58)
  %60 = load i64, ptr %7, align 8, !tbaa !58
  %61 = add i64 %60, 1
  store i64 %61, ptr %7, align 8, !tbaa !58
  br label %62

62:                                               ; preds = %53
  %63 = load ptr, ptr %8, align 8, !tbaa !8
  %64 = getelementptr inbounds nuw %struct.pmix_list_item_t, ptr %63, i32 0, i32 1
  %65 = load ptr, ptr %64, align 8, !tbaa !134
  store ptr %65, ptr %8, align 8, !tbaa !8
  br label %48, !llvm.loop !139

66:                                               ; preds = %48
  store i32 0, ptr %3, align 4
  store i32 1, ptr %10, align 4
  br label %67

67:                                               ; preds = %66, %34, %24, %17
  call void @llvm.lifetime.end.p0(i64 8, ptr %9) #15
  call void @llvm.lifetime.end.p0(i64 8, ptr %8) #15
  call void @llvm.lifetime.end.p0(i64 8, ptr %7) #15
  call void @llvm.lifetime.end.p0(i64 8, ptr %6) #15
  %68 = load i32, ptr %3, align 4
  ret i32 %68
}