; Function Attrs: nounwind uwtable
define range(i32 -60, 1) i32 @PMIx_Info_list_convert(ptr noundef %0, ptr noundef %1) local_unnamed_addr #0 {
  %3 = icmp eq ptr %1, null
  %4 = icmp eq ptr %0, null
  %or.cond = or i1 %4, %3
  br i1 %or.cond, label %.loopexit, label %5

5:                                                ; preds = %2
  tail call void @PMIx_Data_array_init(ptr noundef nonnull %1, i16 noundef zeroext 24) #24
  %6 = getelementptr inbounds nuw i8, ptr %0, i64 264
  %7 = load volatile i64, ptr %6, align 8, !tbaa !149
  %8 = icmp eq i64 %7, 0
  br i1 %8, label %.loopexit, label %9

9:                                                ; preds = %5
  %10 = tail call ptr @PMIx_Info_create(i64 noundef %7) #24
  %11 = getelementptr inbounds nuw i8, ptr %1, i64 16
  store ptr %10, ptr %11, align 8, !tbaa !35
  %12 = icmp eq ptr %10, null
  br i1 %12, label %.loopexit, label %13

13:                                               ; preds = %9
  store i16 24, ptr %1, align 8, !tbaa !33
  %14 = getelementptr inbounds nuw i8, ptr %1, i64 8
  store i64 %7, ptr %14, align 8, !tbaa !36
  %15 = getelementptr inbounds nuw i8, ptr %0, i64 120
  %16 = getelementptr inbounds nuw i8, ptr %0, i64 240
  %.02227 = load ptr, ptr %16, align 8, !tbaa !148
  %.not28 = icmp eq ptr %.02227, %15
  br i1 %.not28, label %.loopexit, label %.lr.ph

.lr.ph:                                           ; preds = %13, %.lr.ph
  %.02230 = phi ptr [ %.022, %.lr.ph ], [ %.02227, %13 ]
  %.02329 = phi i64 [ %20, %.lr.ph ], [ 0, %13 ]
  %17 = getelementptr inbounds nuw %struct.pmix_info, ptr %10, i64 %.02329
  %18 = getelementptr inbounds nuw i8, ptr %.02230, i64 144
  %19 = tail call i32 @PMIx_Info_xfer(ptr noundef nonnull %17, ptr noundef nonnull %18) #24
  %20 = add i64 %.02329, 1
  %21 = getelementptr inbounds nuw i8, ptr %.02230, i64 120
  %.022 = load ptr, ptr %21, align 8, !tbaa !148
  %.not = icmp eq ptr %.022, %15
  br i1 %.not, label %.loopexit, label %.lr.ph, !llvm.loop !150

.loopexit:                                        ; preds = %.lr.ph, %13, %9, %5, %2
  %.0 = phi i32 [ -27, %2 ], [ -60, %5 ], [ -32, %9 ], [ 0, %13 ], [ 0, %.lr.ph ]
  ret i32 %.0
}